; Function Attrs: nounwind uwtable
define internal noundef ptr @memory_enter(ptr noundef %0, ptr readnone captures(none) %1) #0 {
  %3 = getelementptr inbounds nuw i8, ptr %0, i64 40
  %4 = load i32, ptr %3, align 8, !tbaa !109
  %5 = and i32 %4, 1
  %.not = icmp eq i32 %5, 0
  br i1 %.not, label %6, label %12

6:                                                ; preds = %2
  %7 = getelementptr inbounds nuw i8, ptr %0, i64 24
  %8 = load ptr, ptr %7, align 8, !tbaa !105
  %9 = getelementptr inbounds nuw i8, ptr %8, i64 16
  %10 = load i32, ptr %9, align 8, !tbaa !4
  %11 = and i32 %10, 1
  %.not4 = icmp eq i32 %11, 0
  br i1 %.not4, label %14, label %12

12:                                               ; preds = %6, %2
  %13 = load ptr, ptr @PyExc_ValueError, align 8, !tbaa !104
  tail call void @PyErr_SetString(ptr noundef %13, ptr noundef nonnull @.str.8) #14
  br label %_Py_NewRef.exit

14:                                               ; preds = %6
  %15 = load i32, ptr %0, align 8, !tbaa !102
  %16 = icmp slt i32 %15, 0
  br i1 %16, label %_Py_NewRef.exit, label %17

17:                                               ; preds = %14
  %18 = add nuw i32 %15, 1
  store i32 %18, ptr %0, align 8, !tbaa !102
  br label %_Py_NewRef.exit

_Py_NewRef.exit:                                  ; preds = %17, %14, %12
  %.0 = phi ptr [ null, %12 ], [ %0, %14 ], [ %0, %17 ]
  ret ptr %.0
}